; ModuleID = 'bench/libcxx/original/any.ll'
source_filename = "bench/libcxx/original/any.ll"
target datalayout = "e-m:e-p270:32:32-p271:32:32-p272:64:64-i64:64-i128:128-f80:128-n8:16:32:64-S128"
target triple = "x86_64-pc-linux-gnu"

$_ZNSt12bad_any_castD0Ev = comdat any

$_ZNSt12experimental15fundamentals_v112bad_any_castD0Ev = comdat any

@.str = private unnamed_addr constant [13 x i8] c"bad any cast\00", align 1
@_ZTVSt12bad_any_cast = dso_local unnamed_addr constant { [5 x ptr] } { [5 x ptr] [ptr null, ptr @_ZTISt12bad_any_cast, ptr @_ZNSt8bad_castD2Ev, ptr @_ZNSt12bad_any_castD0Ev, ptr @_ZNKSt12bad_any_cast4whatEv] }, align 8
@_ZTISt12bad_any_cast = dso_local constant { ptr, ptr, ptr } { ptr getelementptr inbounds (ptr, ptr @_ZTVN10__cxxabiv120__si_class_type_infoE, i64 2), ptr @_ZTSSt12bad_any_cast, ptr @_ZTISt8bad_cast }, align 8
@_ZTVN10__cxxabiv120__si_class_type_infoE = external global [0 x ptr]
@_ZTSSt12bad_any_cast = dso_local constant [17 x i8] c"St12bad_any_cast\00", align 1
@_ZTISt8bad_cast = external constant ptr
@_ZTVNSt12experimental15fundamentals_v112bad_any_castE = dso_local unnamed_addr constant { [5 x ptr] } { [5 x ptr] [ptr null, ptr @_ZTINSt12experimental15fundamentals_v112bad_any_castE, ptr @_ZNSt8bad_castD2Ev, ptr @_ZNSt12experimental15fundamentals_v112bad_any_castD0Ev, ptr @_ZNKSt12experimental15fundamentals_v112bad_any_cast4whatEv] }, align 8
@_ZTINSt12experimental15fundamentals_v112bad_any_castE = dso_local constant { ptr, ptr, ptr } { ptr getelementptr inbounds (ptr, ptr @_ZTVN10__cxxabiv120__si_class_type_infoE, i64 2), ptr @_ZTSNSt12experimental15fundamentals_v112bad_any_castE, ptr @_ZTISt8bad_cast }, align 8
@_ZTSNSt12experimental15fundamentals_v112bad_any_castE = dso_local constant [50 x i8] c"NSt12experimental15fundamentals_v112bad_any_castE\00", align 1

; Function Attrs: mustprogress nofree norecurse nosync nounwind willreturn memory(none) uwtable
define dso_local noundef nonnull ptr @_ZNKSt12bad_any_cast4whatEv(ptr nonnull readnone align 8 captures(none) %0) unnamed_addr #0 align 2 {
  ret ptr @.str
}

; Function Attrs: mustprogress nofree norecurse nosync nounwind willreturn memory(none) uwtable
define dso_local noundef nonnull ptr @_ZNKSt12experimental15fundamentals_v112bad_any_cast4whatEv(ptr nonnull readnone align 8 captures(none) %0) unnamed_addr #0 align 2 {
  ret ptr @.str
}

; Function Attrs: inlinehint mustprogress nounwind uwtable
define linkonce_odr hidden void @_ZNSt12bad_any_castD0Ev(ptr noundef nonnull align 8 dereferenceable(8) %0) unnamed_addr #1 comdat align 2 {
  tail call void @_ZNSt8bad_castD2Ev(ptr noundef nonnull align 8 dereferenceable(8) %0) #4
  tail call void @_ZdlPvm(ptr noundef nonnull %0, i64 noundef 8) #5
  ret void
}

; Function Attrs: nounwind
declare void @_ZNSt8bad_castD2Ev(ptr noundef nonnull align 8 dereferenceable(8)) unnamed_addr #2

; Function Attrs: inlinehint mustprogress nounwind uwtable
define linkonce_odr hidden void @_ZNSt12experimental15fundamentals_v112bad_any_castD0Ev(ptr noundef nonnull align 8 dereferenceable(8) %0) unnamed_addr #1 comdat align 2 {
  tail call void @_ZNSt8bad_castD2Ev(ptr noundef nonnull align 8 dereferenceable(8) %0) #4
  tail call void @_ZdlPvm(ptr noundef nonnull %0, i64 noundef 8) #5
  ret void
}

; Function Attrs: nobuiltin nounwind
declare void @_ZdlPvm(ptr noundef, i64 noundef) local_unnamed_addr #3


!llvm.linker.options = !{}
!llvm.module.flags = !{!0, !1, !2, !3}

!0 = !{i32 1, !"wchar_size", i32 4}
!1 = !{i32 8, !"PIC Level", i32 2}
!2 = !{i32 7, !"PIE Level", i32 2}
!3 = !{i32 7, !"uwtable", i32 2}
